target datalayout = "e-m:e-p270:32:32-p271:32:32-p272:64:64-i64:64-i128:128-f80:128-n8:16:32:64-S128"
target triple = "x86_64-pc-linux-gnu"

%struct.prov_aes_gcm_siv_ctx_st = type { ptr, ptr, ptr, ptr, ptr, i64, i64, [32 x i8], [32 x i8], [16 x i8], [16 x i8], [16 x i8], [12 x i8], [16 x %struct.u128], i8 }
%struct.u128 = type { i64, i64 }
%struct.ossl_param_st = type { ptr, i32, ptr, i64, i64 }

@.str = private unnamed_addr constant [66 x i8] c"../openssl/providers/implementations/ciphers/cipher_aes_gcm_siv.c\00", align 1
@.str.1 = private unnamed_addr constant [4 x i8] c"tag\00", align 1
@__func__.ossl_aes_gcm_siv_get_ctx_params = private unnamed_addr constant [32 x i8] c"ossl_aes_gcm_siv_get_ctx_params\00", align 1
@.str.2 = private unnamed_addr constant [7 x i8] c"taglen\00", align 1
@.str.3 = private unnamed_addr constant [7 x i8] c"keylen\00", align 1

; Function Attrs: nounwind uwtable
define internal i32 @ossl_aes_gcm_siv_get_ctx_params(ptr noundef %0, ptr noundef %1) #0 {
  %3 = alloca i32, align 4
  %4 = alloca ptr, align 8
  %5 = alloca ptr, align 8
  %6 = alloca ptr, align 8
  %7 = alloca ptr, align 8
  %8 = alloca i32, align 4
  store ptr %0, ptr %4, align 8, !tbaa !3
  store ptr %1, ptr %5, align 8, !tbaa !26
  call void @llvm.lifetime.start.p0(i64 8, ptr %6) #5
  %9 = load ptr, ptr %4, align 8, !tbaa !3
  store ptr %9, ptr %6, align 8, !tbaa !7
  call void @llvm.lifetime.start.p0(i64 8, ptr %7) #5
  %10 = load ptr, ptr %5, align 8, !tbaa !26
  %11 = call ptr @OSSL_PARAM_locate(ptr noundef %10, ptr noundef @.str.1)
  store ptr %11, ptr %7, align 8, !tbaa !26
  %12 = load ptr, ptr %7, align 8, !tbaa !26
  %13 = icmp ne ptr %12, null
  br i1 %13, label %14, label %48

14:                                               ; preds = %2
  %15 = load ptr, ptr %7, align 8, !tbaa !26
  %16 = getelementptr inbounds nuw %struct.ossl_param_st, ptr %15, i32 0, i32 1
  %17 = load i32, ptr %16, align 8, !tbaa !32
  %18 = icmp eq i32 %17, 5
  br i1 %18, label %19, label %48

19:                                               ; preds = %14
  %20 = load ptr, ptr %6, align 8, !tbaa !7
  %21 = getelementptr inbounds nuw %struct.prov_aes_gcm_siv_ctx_st, ptr %20, i32 0, i32 14
  %22 = load i8, ptr %21, align 8
  %23 = and i8 %22, 1
  %24 = zext i8 %23 to i32
  %25 = icmp ne i32 %24, 0
  br i1 %25, label %26, label %46

26:                                               ; preds = %19
  %27 = load ptr, ptr %6, align 8, !tbaa !7
  %28 = getelementptr inbounds nuw %struct.prov_aes_gcm_siv_ctx_st, ptr %27, i32 0, i32 14
  %29 = load i8, ptr %28, align 8
  %30 = lshr i8 %29, 2
  %31 = and i8 %30, 1
  %32 = zext i8 %31 to i32
  %33 = icmp ne i32 %32, 0
  br i1 %33, label %34, label %46

34:                                               ; preds = %26
  %35 = load ptr, ptr %7, align 8, !tbaa !26
  %36 = getelementptr inbounds nuw %struct.ossl_param_st, ptr %35, i32 0, i32 3
  %37 = load i64, ptr %36, align 8, !tbaa !34
  %38 = icmp ne i64 %37, 16
  br i1 %38, label %46, label %39

39:                                               ; preds = %34
  %40 = load ptr, ptr %7, align 8, !tbaa !26
  %41 = load ptr, ptr %6, align 8, !tbaa !7
  %42 = getelementptr inbounds nuw %struct.prov_aes_gcm_siv_ctx_st, ptr %41, i32 0, i32 10
  %43 = getelementptr inbounds [16 x i8], ptr %42, i64 0, i64 0
  %44 = call i32 @OSSL_PARAM_set_octet_string(ptr noundef %40, ptr noundef %43, i64 noundef 16)
  %45 = icmp ne i32 %44, 0
  br i1 %45, label %47, label %46

46:                                               ; preds = %39, %34, %26, %19
  call void @ERR_new()
  call void @ERR_set_debug(ptr noundef @.str, i32 noundef 185, ptr noundef @__func__.ossl_aes_gcm_siv_get_ctx_params)
  call void (i32, i32, ptr, ...) @ERR_set_error(i32 noundef 57, i32 noundef 104, ptr noundef null)
  store i32 0, ptr %3, align 4
  store i32 1, ptr %8, align 4
  br label %72

47:                                               ; preds = %39
  br label %48

48:                                               ; preds = %47, %14, %2
  %49 = load ptr, ptr %5, align 8, !tbaa !26
  %50 = call ptr @OSSL_PARAM_locate(ptr noundef %49, ptr noundef @.str.2)
  store ptr %50, ptr %7, align 8, !tbaa !26
  %51 = load ptr, ptr %7, align 8, !tbaa !26
  %52 = icmp ne ptr %51, null
  br i1 %52, label %53, label %58

53:                                               ; preds = %48
  %54 = load ptr, ptr %7, align 8, !tbaa !26
  %55 = call i32 @OSSL_PARAM_set_size_t(ptr noundef %54, i64 noundef 16)
  %56 = icmp ne i32 %55, 0
  br i1 %56, label %58, label %57

57:                                               ; preds = %53
  call void @ERR_new()
  call void @ERR_set_debug(ptr noundef @.str, i32 noundef 191, ptr noundef @__func__.ossl_aes_gcm_siv_get_ctx_params)
  call void (i32, i32, ptr, ...) @ERR_set_error(i32 noundef 57, i32 noundef 104, ptr noundef null)
  store i32 0, ptr %3, align 4
  store i32 1, ptr %8, align 4
  br label %72

58:                                               ; preds = %53, %48
  %59 = load ptr, ptr %5, align 8, !tbaa !26
  %60 = call ptr @OSSL_PARAM_locate(ptr noundef %59, ptr noundef @.str.3)
  store ptr %60, ptr %7, align 8, !tbaa !26
  %61 = load ptr, ptr %7, align 8, !tbaa !26
  %62 = icmp ne ptr %61, null
  br i1 %62, label %63, label %71

63:                                               ; preds = %58
  %64 = load ptr, ptr %7, align 8, !tbaa !26
  %65 = load ptr, ptr %6, align 8, !tbaa !7
  %66 = getelementptr inbounds nuw %struct.prov_aes_gcm_siv_ctx_st, ptr %65, i32 0, i32 6
  %67 = load i64, ptr %66, align 8, !tbaa !35
  %68 = call i32 @OSSL_PARAM_set_size_t(ptr noundef %64, i64 noundef %67)
  %69 = icmp ne i32 %68, 0
  br i1 %69, label %71, label %70

70:                                               ; preds = %63
  call void @ERR_new()
  call void @ERR_set_debug(ptr noundef @.str, i32 noundef 196, ptr noundef @__func__.ossl_aes_gcm_siv_get_ctx_params)
  call void (i32, i32, ptr, ...) @ERR_set_error(i32 noundef 57, i32 noundef 104, ptr noundef null)
  store i32 0, ptr %3, align 4
  store i32 1, ptr %8, align 4
  br label %72

71:                                               ; preds = %63, %58
  store i32 1, ptr %3, align 4
  store i32 1, ptr %8, align 4
  br label %72

72:                                               ; preds = %71, %70, %57, %46
  call void @llvm.lifetime.end.p0(i64 8, ptr %7) #5
  call void @llvm.lifetime.end.p0(i64 8, ptr %6) #5
  %73 = load i32, ptr %3, align 4
  ret i32 %73
}