; Function Attrs: nounwind uwtable
define internal range(i32 0, 2) i32 @ossl_aes_gcm_siv_get_ctx_params(ptr noundef %0, ptr noundef %1) #0 {
  %3 = tail call ptr @OSSL_PARAM_locate(ptr noundef %1, ptr noundef nonnull @.str.1) #5
  %.not = icmp eq ptr %3, null
  br i1 %.not, label %18, label %4

4:                                                ; preds = %2
  %5 = getelementptr inbounds nuw i8, ptr %3, i64 8
  %6 = load i32, ptr %5, align 8, !tbaa !26
  %7 = icmp eq i32 %6, 5
  br i1 %7, label %8, label %18

8:                                                ; preds = %4
  %9 = getelementptr inbounds nuw i8, ptr %0, i64 440
  %10 = load i8, ptr %9, align 8
  %11 = and i8 %10, 5
  %or.cond.not = icmp eq i8 %11, 5
  br i1 %or.cond.not, label %12, label %.sink.split

12:                                               ; preds = %8
  %13 = getelementptr inbounds nuw i8, ptr %3, i64 24
  %14 = load i64, ptr %13, align 8, !tbaa !28
  %.not21 = icmp eq i64 %14, 16
  br i1 %.not21, label %15, label %.sink.split

15:                                               ; preds = %12
  %16 = getelementptr inbounds nuw i8, ptr %0, i64 136
  %17 = tail call i32 @OSSL_PARAM_set_octet_string(ptr noundef nonnull %3, ptr noundef nonnull %16, i64 noundef 16) #5
  %.not22 = icmp eq i32 %17, 0
  br i1 %.not22, label %.sink.split, label %18

18:                                               ; preds = %15, %4, %2
  %19 = tail call ptr @OSSL_PARAM_locate(ptr noundef %1, ptr noundef nonnull @.str.2) #5
  %.not23 = icmp eq ptr %19, null
  br i1 %.not23, label %22, label %20

20:                                               ; preds = %18
  %21 = tail call i32 @OSSL_PARAM_set_size_t(ptr noundef nonnull %19, i64 noundef 16) #5
  %.not24 = icmp eq i32 %21, 0
  br i1 %.not24, label %.sink.split, label %22

22:                                               ; preds = %20, %18
  %23 = tail call ptr @OSSL_PARAM_locate(ptr noundef %1, ptr noundef nonnull @.str.3) #5
  %.not25 = icmp eq ptr %23, null
  br i1 %.not25, label %28, label %24

24:                                               ; preds = %22
  %25 = getelementptr inbounds nuw i8, ptr %0, i64 48
  %26 = load i64, ptr %25, align 8, !tbaa !3
  %27 = tail call i32 @OSSL_PARAM_set_size_t(ptr noundef nonnull %23, i64 noundef %26) #5
  %.not26 = icmp eq i32 %27, 0
  br i1 %.not26, label %.sink.split, label %28

.sink.split:                                      ; preds = %24, %20, %8, %12, %15
  %.sink = phi i32 [ 185, %15 ], [ 185, %12 ], [ 185, %8 ], [ 191, %20 ], [ 196, %24 ]
  tail call void @ERR_new() #5
  tail call void @ERR_set_debug(ptr noundef nonnull @.str, i32 noundef %.sink, ptr noundef nonnull @__func__.ossl_aes_gcm_siv_get_ctx_params) #5
  tail call void (i32, i32, ptr, ...) @ERR_set_error(i32 noundef 57, i32 noundef 104, ptr noundef null) #5
  br label %28

28:                                               ; preds = %.sink.split, %22, %24
  %.0 = phi i32 [ 1, %24 ], [ 1, %22 ], [ 0, %.sink.split ]
  ret i32 %.0
}